target datalayout = "e-m:e-p270:32:32-p271:32:32-p272:64:64-i64:64-i128:128-f80:128-n8:16:32:64-S128"
target triple = "x86_64-pc-linux-gnu"

%"class.icu_77::UCharCharacterIterator" = type { %"class.icu_77::CharacterIterator", ptr }
%"class.icu_77::CharacterIterator" = type { %"class.icu_77::ForwardCharacterIterator", i32, i32, i32, i32 }
%"class.icu_77::ForwardCharacterIterator" = type { %"class.icu_77::UObject" }
%"class.icu_77::UObject" = type { ptr }

; Function Attrs: mustprogress uwtable
define noundef i32 @_ZNK6icu_7722UCharCharacterIterator8hashCodeEv(ptr noundef nonnull align 8 dereferenceable(32) %0) unnamed_addr #1 align 2 {
  %2 = alloca ptr, align 8
  store ptr %0, ptr %2, align 8, !tbaa !3
  %3 = load ptr, ptr %2, align 8
  %4 = getelementptr inbounds nuw %"class.icu_77::UCharCharacterIterator", ptr %3, i32 0, i32 1
  %5 = load ptr, ptr %4, align 8, !tbaa !10
  %6 = getelementptr inbounds nuw %"class.icu_77::CharacterIterator", ptr %3, i32 0, i32 1
  %7 = load i32, ptr %6, align 8, !tbaa !22
  %8 = call i32 @ustr_hashUCharsN_77(ptr noundef %5, i32 noundef %7)
  %9 = getelementptr inbounds nuw %"class.icu_77::CharacterIterator", ptr %3, i32 0, i32 2
  %10 = load i32, ptr %9, align 4, !tbaa !23
  %11 = xor i32 %8, %10
  %12 = getelementptr inbounds nuw %"class.icu_77::CharacterIterator", ptr %3, i32 0, i32 3
  %13 = load i32, ptr %12, align 8, !tbaa !24
  %14 = xor i32 %11, %13
  %15 = getelementptr inbounds nuw %"class.icu_77::CharacterIterator", ptr %3, i32 0, i32 4
  %16 = load i32, ptr %15, align 4, !tbaa !25
  %17 = xor i32 %14, %16
  ret i32 %17
}