; Function Attrs: mustprogress uwtable
define noundef i32 @_ZNK6icu_7722UCharCharacterIterator8hashCodeEv(ptr noundef nonnull readonly align 8 captures(none) dereferenceable(32) %0) unnamed_addr #1 align 2 {
  %2 = getelementptr inbounds nuw i8, ptr %0, i64 24
  %3 = load ptr, ptr %2, align 8, !tbaa !6
  %4 = getelementptr inbounds nuw i8, ptr %0, i64 8
  %5 = load i32, ptr %4, align 8, !tbaa !21
  %6 = tail call i32 @ustr_hashUCharsN_77(ptr noundef %3, i32 noundef %5)
  %7 = getelementptr inbounds nuw i8, ptr %0, i64 12
  %8 = load i32, ptr %7, align 4, !tbaa !22
  %9 = xor i32 %8, %6
  %10 = getelementptr inbounds nuw i8, ptr %0, i64 16
  %11 = load i32, ptr %10, align 8, !tbaa !23
  %12 = xor i32 %9, %11
  %13 = getelementptr inbounds nuw i8, ptr %0, i64 20
  %14 = load i32, ptr %13, align 4, !tbaa !24
  %15 = xor i32 %12, %14
  ret i32 %15
}